; Function Attrs: mustprogress uwtable
define hidden noundef nonnull align 8 dereferenceable(8) ptr @_ZN4cvc58internal7optionslsERSoNS1_15QuantDSplitModeE(ptr noundef nonnull returned align 8 dereferenceable(8) %0, i32 noundef %1) local_unnamed_addr #3 personality ptr @__gxx_personality_v0 {
  %3 = alloca %"class.cvc5::internal::FatalStream", align 1
  switch i32 %1, label %10 [
    i32 0, label %4
    i32 1, label %6
    i32 2, label %8
  ]

4:                                                ; preds = %2
  %5 = tail call noundef nonnull align 8 dereferenceable(8) ptr @_ZSt16__ostream_insertIcSt11char_traitsIcEERSt13basic_ostreamIT_T0_ES6_PKS3_l(ptr noundef nonnull align 8 dereferenceable(8) %0, ptr noundef nonnull @.str.8, i64 noundef 4)
  br label %17

6:                                                ; preds = %2
  %7 = tail call noundef nonnull align 8 dereferenceable(8) ptr @_ZSt16__ostream_insertIcSt11char_traitsIcEERSt13basic_ostreamIT_T0_ES6_PKS3_l(ptr noundef nonnull align 8 dereferenceable(8) %0, ptr noundef nonnull @.str.74, i64 noundef 7)
  br label %17

8:                                                ; preds = %2
  %9 = tail call noundef nonnull align 8 dereferenceable(8) ptr @_ZSt16__ostream_insertIcSt11char_traitsIcEERSt13basic_ostreamIT_T0_ES6_PKS3_l(ptr noundef nonnull align 8 dereferenceable(8) %0, ptr noundef nonnull @.str.22, i64 noundef 3)
  br label %17

10:                                               ; preds = %2
  call void @llvm.lifetime.start.p0(i64 1, ptr nonnull %3) #17
  call void @_ZN4cvc58internal11FatalStreamC1EPKcS3_i(ptr noundef nonnull align 1 dereferenceable(1) %3, ptr noundef nonnull @__PRETTY_FUNCTION__._ZN4cvc58internal7optionslsERSoNS1_15QuantDSplitModeE, ptr noundef nonnull @.str.2, i32 noundef 528)
  %11 = invoke noundef nonnull align 8 dereferenceable(8) ptr @_ZN4cvc58internal11FatalStream6streamEv(ptr noundef nonnull align 1 dereferenceable(1) %3)
          to label %12 unwind label %15

12:                                               ; preds = %10
  %13 = invoke noundef nonnull align 8 dereferenceable(8) ptr @_ZStlsISt11char_traitsIcEERSt13basic_ostreamIcT_ES5_PKc(ptr noundef nonnull align 8 dereferenceable(8) %11, ptr noundef nonnull @.str.3)
          to label %14 unwind label %15

14:                                               ; preds = %12
  call void @_ZN4cvc58internal11FatalStreamD1Ev(ptr noundef nonnull align 1 dereferenceable(1) %3) #18
  unreachable

15:                                               ; preds = %12, %10
  %16 = landingpad { ptr, i32 }
          cleanup
  call void @_ZN4cvc58internal11FatalStreamD1Ev(ptr noundef nonnull align 1 dereferenceable(1) %3) #18
  unreachable

17:                                               ; preds = %8, %6, %4
  ret ptr %0
}